libmemtailor.so.0 libmemtailor0 #MINVER#
 _ZN4memt10BufferPool12growCapacityEv@Base 1.0~git20130809
 _ZN4memt10BufferPool14freeAllBuffersEv@Base 1.0~git20130809
 _ZN4memt10BufferPool30freeAllBuffersAndBackingMemoryEv@Base 1.0~git20130809
 _ZN4memt10BufferPoolC1Em@Base 1.0~git20130809
 _ZN4memt10BufferPoolC2Em@Base 1.0~git20130809
 _ZN4memt12MemoryBlocks13freeAllBlocksEv@Base 1.0~git20130809
 _ZN4memt12MemoryBlocks21freeAllPreviousBlocksEv@Base 1.0~git20130809
 _ZN4memt12MemoryBlocks5Block12freePreviousEv@Base 1.0~git20130809
 _ZN4memt12MemoryBlocks5Block8newBlockEm@Base 1.0~git20130809
 _ZN4memt12MemoryBlocks7blockOfEPKv@Base 1.0~git20130809
 _ZN4memt5Arena12growCapacityEm@Base 1.0~git20130809
 _ZN4memt5Arena13_scratchArenaE@Base 1.0~git20130809
 _ZN4memt5Arena13freeAllAllocsEv@Base 1.0~git20130809
 _ZN4memt5Arena19freeTopFromOldBlockEPv@Base 1.0~git20130809
 _ZN4memt5Arena27freeAndAllAfterFromOldBlockEPv@Base 1.0~git20130809
 _ZN4memt5Arena29freeAllAllocsAndBackingMemoryEv@Base 1.0~git20130809
 _ZN4memt5Arena9fromArenaEPKv@Base 1.0~git20130809
 _ZN4memt5ArenaC1Ev@Base 1.0~git20130809
 _ZN4memt5ArenaC2Ev@Base 1.0~git20130809
 _ZN4memt5ArenaD1Ev@Base 1.0~git20130809
 _ZN4memt5ArenaD2Ev@Base 1.0~git20130809
 _ZNK4memt10BufferPool8fromPoolEPKv@Base 1.0~git20130809
 _ZNK4memt12MemoryBlocks12getMemoryUseEv@Base 1.0~git20130809
 _ZNK4memt12MemoryBlocks18getMemoryUseToLeftEv@Base 1.0~git20130809
 libmemtailorIsPresent@Base 1.0~git20130809
